; Function Attrs: mustprogress nofree norecurse nosync nounwind willreturn memory(read, inaccessiblemem: none) uwtable
define dso_local i64 @array_subscript_handler_support(ptr noundef readonly captures(none) %0) local_unnamed_addr #2 {
  %2 = getelementptr inbounds nuw i8, ptr %0, i64 32
  %3 = load i64, ptr %2, align 8
  %4 = inttoptr i64 %3 to ptr
  %5 = load i32, ptr %4, align 4
  %6 = icmp eq i32 %5, 463
  br i1 %6, label %7, label %29

7:                                                ; preds = %1
  %8 = getelementptr inbounds nuw i8, ptr %4, i64 8
  %9 = load ptr, ptr %8, align 8
  %10 = getelementptr i8, ptr %9, i64 16
  %.val = load ptr, ptr %10, align 8
  %11 = load ptr, ptr %.val, align 8
  %.not = icmp eq ptr %11, null
  br i1 %.not, label %29, label %12

12:                                               ; preds = %7
  %13 = load i32, ptr %11, align 4
  %14 = icmp eq i32 %13, 8
  br i1 %14, label %15, label %29

15:                                               ; preds = %12
  %16 = getelementptr inbounds nuw i8, ptr %11, i64 4
  %17 = load i32, ptr %16, align 4
  %18 = icmp eq i32 %17, 0
  br i1 %18, label %19, label %29

19:                                               ; preds = %15
  %20 = getelementptr inbounds nuw i8, ptr %11, i64 8
  %21 = load i32, ptr %20, align 4
  %22 = getelementptr inbounds nuw i8, ptr %4, i64 16
  %23 = load i32, ptr %22, align 8
  %24 = icmp eq i32 %21, %23
  br i1 %24, label %25, label %29

25:                                               ; preds = %19
  %26 = getelementptr inbounds nuw i8, ptr %.val, i64 8
  %27 = load ptr, ptr %26, align 8
  %.not13 = icmp eq ptr %27, null
  %spec.select = select i1 %.not13, ptr null, ptr %11
  %28 = ptrtoint ptr %spec.select to i64
  br label %29

29:                                               ; preds = %25, %7, %12, %15, %19, %1
  %.0 = phi i64 [ 0, %1 ], [ 0, %19 ], [ 0, %15 ], [ 0, %12 ], [ 0, %7 ], [ %28, %25 ]
  ret i64 %.0
}